; Function Attrs: mustprogress nounwind uwtable
define void @_ZN8nanobind11chain_errorENS_6handleEPKcz(ptr %0, ptr noundef %1, ...) local_unnamed_addr #0 {
  %3 = alloca [1 x %struct.__va_list_tag], align 16
  call void @llvm.lifetime.start.p0(i64 24, ptr nonnull %3) #26
  call void @llvm.va_start.p0(ptr nonnull %3)
  call fastcc void @_ZN8nanobindL13chain_error_vENS_6handleEPKcP13__va_list_tag(ptr %0, ptr noundef %1, ptr noundef %3) #26
  call void @llvm.va_end.p0(ptr nonnull %3)
  call void @llvm.lifetime.end.p0(i64 24, ptr nonnull %3) #26
  ret void
}